; Function Attrs: nofree nounwind sspstrong uwtable
define dso_local %struct.student* @creat(i32 %0) local_unnamed_addr #0 {
  store i32 0, i32* @m, align 4, !tbaa !5
  %2 = tail call noalias align 16 dereferenceable_or_null(100) i8* @malloc(i64 100) #4
  %3 = bitcast i8* %2 to %struct.student*
  store i8* %2, i8** bitcast (%struct.student** @p2 to i8**), align 8, !tbaa !9
  store i8* %2, i8** bitcast (%struct.student** @p1 to i8**), align 8, !tbaa !9
  %4 = getelementptr inbounds %struct.student, %struct.student* %3, i64 0, i32 0
  %5 = getelementptr inbounds %struct.student, %struct.student* %3, i64 0, i32 1
  %6 = getelementptr inbounds %struct.student, %struct.student* %3, i64 0, i32 2
  %7 = tail call i32 (i8*, ...) @__isoc99_scanf(i8* getelementptr inbounds ([9 x i8], [9 x i8]* @.str, i64 0, i64 0), i32* %4, i32* nonnull %5, i32* nonnull %6)
  %8 = load %struct.student*, %struct.student** @p1, align 8, !tbaa !9
  %9 = getelementptr inbounds %struct.student, %struct.student* %8, i64 0, i32 1
  %10 = load i32, i32* %9, align 4, !tbaa !11
  %11 = getelementptr inbounds %struct.student, %struct.student* %8, i64 0, i32 2
  %12 = load i32, i32* %11, align 8, !tbaa !13
  %13 = add nsw i32 %12, %10
  %14 = getelementptr inbounds %struct.student, %struct.student* %8, i64 0, i32 3
  store i32 %13, i32* %14, align 4, !tbaa !14
  store %struct.student* null, %struct.student** @head, align 8, !tbaa !9
  %15 = add nsw i32 %0, -1
  %16 = load i32, i32* @m, align 4, !tbaa !5
  %17 = icmp slt i32 %16, %15
  br i1 %17, label %18, label %43

18:                                               ; preds = %1, %18
  %19 = phi %struct.student* [ %32, %18 ], [ %8, %1 ]
  %20 = phi i32 [ %39, %18 ], [ %16, %1 ]
  %21 = add nsw i32 %20, 1
  store i32 %21, i32* @m, align 4, !tbaa !5
  %22 = icmp eq i32 %20, 0
  %23 = load %struct.student*, %struct.student** @p2, align 8
  %24 = getelementptr inbounds %struct.student, %struct.student* %23, i64 0, i32 4
  %25 = select i1 %22, %struct.student** @head, %struct.student** %24
  store %struct.student* %19, %struct.student** %25, align 8, !tbaa !9
  store %struct.student* %19, %struct.student** @p2, align 8, !tbaa !9
  %26 = tail call noalias align 16 dereferenceable_or_null(100) i8* @malloc(i64 100) #4
  %27 = bitcast i8* %26 to %struct.student*
  store i8* %26, i8** bitcast (%struct.student** @p1 to i8**), align 8, !tbaa !9
  %28 = getelementptr inbounds %struct.student, %struct.student* %27, i64 0, i32 0
  %29 = getelementptr inbounds %struct.student, %struct.student* %27, i64 0, i32 1
  %30 = getelementptr inbounds %struct.student, %struct.student* %27, i64 0, i32 2
  %31 = tail call i32 (i8*, ...) @__isoc99_scanf(i8* getelementptr inbounds ([9 x i8], [9 x i8]* @.str, i64 0, i64 0), i32* %28, i32* nonnull %29, i32* nonnull %30)
  %32 = load %struct.student*, %struct.student** @p1, align 8, !tbaa !9
  %33 = getelementptr inbounds %struct.student, %struct.student* %32, i64 0, i32 1
  %34 = load i32, i32* %33, align 4, !tbaa !11
  %35 = getelementptr inbounds %struct.student, %struct.student* %32, i64 0, i32 2
  %36 = load i32, i32* %35, align 8, !tbaa !13
  %37 = add nsw i32 %36, %34
  %38 = getelementptr inbounds %struct.student, %struct.student* %32, i64 0, i32 3
  store i32 %37, i32* %38, align 4, !tbaa !14
  %39 = load i32, i32* @m, align 4, !tbaa !5
  %40 = icmp slt i32 %39, %15
  br i1 %40, label %18, label %41, !llvm.loop !15

41:                                               ; preds = %18
  %42 = load %struct.student*, %struct.student** @head, align 8, !tbaa !9
  br label %43

43:                                               ; preds = %41, %1
  %44 = phi %struct.student* [ %42, %41 ], [ null, %1 ]
  %45 = phi %struct.student* [ %32, %41 ], [ %8, %1 ]
  %46 = load %struct.student*, %struct.student** @p2, align 8, !tbaa !9
  %47 = getelementptr inbounds %struct.student, %struct.student* %46, i64 0, i32 4
  store %struct.student* %45, %struct.student** %47, align 8, !tbaa !17
  store %struct.student* %45, %struct.student** @p2, align 8, !tbaa !9
  %48 = getelementptr inbounds %struct.student, %struct.student* %45, i64 0, i32 4
  store %struct.student* null, %struct.student** %48, align 8, !tbaa !17
  ret %struct.student* %44
}

; Function Attrs: nofree nounwind sspstrong uwtable
define dso_local void @main() local_unnamed_addr #0 {
  %1 = alloca i32, align 4
  %2 = bitcast i32* %1 to i8*
  call void @llvm.lifetime.start.p0i8(i64 4, i8* nonnull %2) #4
  %3 = call i32 (i8*, ...) @__isoc99_scanf(i8* getelementptr inbounds ([3 x i8], [3 x i8]* @.str.1, i64 0, i64 0), i32* nonnull %1)
  %4 = load i32, i32* %1, align 4, !tbaa !5
  %5 = call %struct.student* @creat(i32 %4)
  %6 = load %struct.student*, %struct.student** @head, align 8, !tbaa !9
  %7 = load i32, i32* getelementptr inbounds ([3 x i32], [3 x i32]* @max, i64 0, i64 0), align 4, !tbaa !5
  br label %8

8:                                                ; preds = %17, %0
  %9 = phi i32 [ %7, %0 ], [ %18, %17 ]
  %10 = phi %struct.student* [ %6, %0 ], [ %20, %17 ]
  %11 = getelementptr inbounds %struct.student, %struct.student* %10, i64 0, i32 3
  %12 = load i32, i32* %11, align 4, !tbaa !14
  %13 = icmp sgt i32 %12, %9
  br i1 %13, label %14, label %17

14:                                               ; preds = %8
  store i32 %12, i32* getelementptr inbounds ([3 x i32], [3 x i32]* @max, i64 0, i64 0), align 4, !tbaa !5
  %15 = getelementptr inbounds %struct.student, %struct.student* %10, i64 0, i32 0
  %16 = load i32, i32* %15, align 8, !tbaa !18
  store i32 %16, i32* getelementptr inbounds ([3 x i32], [3 x i32]* @t, i64 0, i64 0), align 4, !tbaa !5
  br label %17

17:                                               ; preds = %14, %8
  %18 = phi i32 [ %12, %14 ], [ %9, %8 ]
  %19 = getelementptr inbounds %struct.student, %struct.student* %10, i64 0, i32 4
  %20 = load %struct.student*, %struct.student** %19, align 8, !tbaa !17
  %21 = icmp eq %struct.student* %20, null
  br i1 %21, label %22, label %8, !llvm.loop !19

22:                                               ; preds = %17
  %23 = load i32, i32* getelementptr inbounds ([3 x i32], [3 x i32]* @t, i64 0, i64 0), align 4, !tbaa !5
  %24 = call i32 (i8*, ...) @printf(i8* nonnull dereferenceable(1) getelementptr inbounds ([7 x i8], [7 x i8]* @.str.2, i64 0, i64 0), i32 %23, i32 %18)
  %25 = load %struct.student*, %struct.student** @head, align 8, !tbaa !9
  %26 = load i32, i32* getelementptr inbounds ([3 x i32], [3 x i32]* @t, i64 0, i64 0), align 4
  %27 = load i32, i32* getelementptr inbounds ([3 x i32], [3 x i32]* @max, i64 0, i64 1), align 4, !tbaa !5
  br label %28

28:                                               ; preds = %40, %22
  %29 = phi i32 [ %27, %22 ], [ %41, %40 ]
  %30 = phi %struct.student* [ %25, %22 ], [ %43, %40 ]
  %31 = getelementptr inbounds %struct.student, %struct.student* %30, i64 0, i32 3
  %32 = load i32, i32* %31, align 4, !tbaa !14
  %33 = icmp sgt i32 %32, %29
  br i1 %33, label %34, label %40

34:                                               ; preds = %28
  %35 = getelementptr inbounds %struct.student, %struct.student* %30, i64 0, i32 0
  %36 = load i32, i32* %35, align 8, !tbaa !18
  %37 = icmp eq i32 %36, %26
  br i1 %37, label %40, label %38

38:                                               ; preds = %34
  store i32 %32, i32* getelementptr inbounds ([3 x i32], [3 x i32]* @max, i64 0, i64 1), align 4, !tbaa !5
  %39 = load i32, i32* %35, align 8, !tbaa !18
  store i32 %39, i32* getelementptr inbounds ([3 x i32], [3 x i32]* @t, i64 0, i64 1), align 4, !tbaa !5
  br label %40

40:                                               ; preds = %38, %34, %28
  %41 = phi i32 [ %32, %38 ], [ %29, %34 ], [ %29, %28 ]
  %42 = getelementptr inbounds %struct.student, %struct.student* %30, i64 0, i32 4
  %43 = load %struct.student*, %struct.student** %42, align 8, !tbaa !17
  %44 = icmp eq %struct.student* %43, null
  br i1 %44, label %45, label %28, !llvm.loop !20

45:                                               ; preds = %40
  %46 = load i32, i32* getelementptr inbounds ([3 x i32], [3 x i32]* @t, i64 0, i64 1), align 4, !tbaa !5
  %47 = call i32 (i8*, ...) @printf(i8* nonnull dereferenceable(1) getelementptr inbounds ([7 x i8], [7 x i8]* @.str.2, i64 0, i64 0), i32 %46, i32 %41)
  %48 = load %struct.student*, %struct.student** @head, align 8, !tbaa !9
  %49 = load i32, i32* getelementptr inbounds ([3 x i32], [3 x i32]* @t, i64 0, i64 0), align 4
  %50 = load i32, i32* getelementptr inbounds ([3 x i32], [3 x i32]* @t, i64 0, i64 1), align 4
  %51 = load i32, i32* getelementptr inbounds ([3 x i32], [3 x i32]* @max, i64 0, i64 2), align 4, !tbaa !5
  br label %52

52:                                               ; preds = %66, %45
  %53 = phi i32 [ %51, %45 ], [ %67, %66 ]
  %54 = phi %struct.student* [ %48, %45 ], [ %69, %66 ]
  %55 = getelementptr inbounds %struct.student, %struct.student* %54, i64 0, i32 3
  %56 = load i32, i32* %55, align 4, !tbaa !14
  %57 = icmp sgt i32 %56, %53
  br i1 %57, label %58, label %66

58:                                               ; preds = %52
  %59 = getelementptr inbounds %struct.student, %struct.student* %54, i64 0, i32 0
  %60 = load i32, i32* %59, align 8, !tbaa !18
  %61 = icmp eq i32 %60, %49
  %62 = icmp eq i32 %60, %50
  %63 = select i1 %61, i1 true, i1 %62
  br i1 %63, label %66, label %64

64:                                               ; preds = %58
  store i32 %56, i32* getelementptr inbounds ([3 x i32], [3 x i32]* @max, i64 0, i64 2), align 4, !tbaa !5
  %65 = load i32, i32* %59, align 8, !tbaa !18
  store i32 %65, i32* getelementptr inbounds ([3 x i32], [3 x i32]* @t, i64 0, i64 2), align 4, !tbaa !5
  br label %66

66:                                               ; preds = %64, %58, %52
  %67 = phi i32 [ %56, %64 ], [ %53, %58 ], [ %53, %52 ]
  %68 = getelementptr inbounds %struct.student, %struct.student* %54, i64 0, i32 4
  %69 = load %struct.student*, %struct.student** %68, align 8, !tbaa !17
  %70 = icmp eq %struct.student* %69, null
  br i1 %70, label %71, label %52, !llvm.loop !21

71:                                               ; preds = %66
  %72 = load i32, i32* getelementptr inbounds ([3 x i32], [3 x i32]* @t, i64 0, i64 2), align 4, !tbaa !5
  %73 = call i32 (i8*, ...) @printf(i8* nonnull dereferenceable(1) getelementptr inbounds ([7 x i8], [7 x i8]* @.str.2, i64 0, i64 0), i32 %72, i32 %67)
  call void @llvm.lifetime.end.p0i8(i64 4, i8* nonnull %2) #4
  ret void
}